; Function Attrs: nounwind uwtable
define internal noundef i32 @_srun_step_timeout(ptr noundef readonly captures(none) %0, ptr readnone captures(none) %1) #0 {
  %3 = alloca ptr, align 8
  %4 = getelementptr inbounds nuw i8, ptr %0, i64 280
  %5 = getelementptr inbounds nuw i8, ptr %0, i64 296
  %6 = load i32, ptr %5, align 8
  %7 = icmp eq i32 %6, -5
  br i1 %7, label %49, label %8

8:                                                ; preds = %2
  %9 = getelementptr inbounds nuw i8, ptr %0, i64 192
  %10 = load i16, ptr %9, align 8
  %.not = icmp eq i16 %10, 0
  br i1 %.not, label %49, label %11

11:                                               ; preds = %8
  %12 = getelementptr inbounds nuw i8, ptr %0, i64 128
  %13 = load ptr, ptr %12, align 8
  %.not15 = icmp eq ptr %13, null
  br i1 %.not15, label %49, label %14

14:                                               ; preds = %11
  %15 = load i8, ptr %13, align 1
  %16 = icmp eq i8 %15, 0
  br i1 %16, label %49, label %17

17:                                               ; preds = %14
  %18 = tail call ptr @slurm_xcalloc(i64 noundef 1, i64 noundef 32, i1 noundef zeroext true, i1 noundef zeroext false, ptr noundef nonnull @.str, i32 noundef 278, ptr noundef nonnull @__func__._srun_step_timeout) #6
  call void @llvm.lifetime.start.p0(i64 8, ptr nonnull %3) #6
  %19 = tail call ptr @slurm_xcalloc(i64 noundef 1, i64 noundef 128, i1 noundef zeroext true, i1 noundef zeroext false, ptr noundef nonnull @.str, i32 noundef 114, ptr noundef nonnull @__func__._srun_set_addr) #6
  %20 = load ptr, ptr %12, align 8
  %21 = tail call ptr @slurm_conf_get_nodeaddr(ptr noundef %20) #6
  store ptr %21, ptr %3, align 8
  %.not.i = icmp eq ptr %21, null
  %22 = load i16, ptr %9, align 8
  br i1 %.not.i, label %24, label %23

23:                                               ; preds = %17
  tail call void @slurm_set_addr(ptr noundef %19, i16 noundef zeroext %22, ptr noundef nonnull %21) #6
  call void @slurm_xfree(ptr noundef nonnull %3) #6
  br label %_srun_set_addr.exit

24:                                               ; preds = %17
  %25 = load ptr, ptr %12, align 8
  tail call void @slurm_set_addr(ptr noundef %19, i16 noundef zeroext %22, ptr noundef %25) #6
  br label %_srun_set_addr.exit

_srun_set_addr.exit:                              ; preds = %23, %24
  call void @llvm.lifetime.end.p0(i64 8, ptr nonnull %3) #6
  call void @llvm.memcpy.p0.p0.i64(ptr noundef nonnull align 8 dereferenceable(24) %18, ptr noundef nonnull align 8 dereferenceable(24) %4, i64 24, i1 false)
  %26 = getelementptr inbounds nuw i8, ptr %0, i64 136
  %27 = load ptr, ptr %26, align 8
  %28 = getelementptr inbounds nuw i8, ptr %27, i64 232
  %29 = load i64, ptr %28, align 8
  %30 = getelementptr inbounds nuw i8, ptr %18, i64 24
  store i64 %29, ptr %30, align 8
  %31 = load ptr, ptr %12, align 8
  %32 = load ptr, ptr %26, align 8
  %33 = getelementptr inbounds nuw i8, ptr %32, i64 1096
  %34 = load i32, ptr %33, align 8
  %35 = getelementptr inbounds nuw i8, ptr %0, i64 208
  %36 = load i16, ptr %35, align 8
  %37 = call ptr @slurm_xcalloc(i64 noundef 1, i64 noundef 56, i1 noundef zeroext true, i1 noundef zeroext false, ptr noundef nonnull @.str, i32 noundef 61, ptr noundef nonnull @__func__._srun_agent_launch) #6
  store i32 1, ptr %37, align 8
  %38 = getelementptr inbounds nuw i8, ptr %37, i64 4
  store i16 0, ptr %38, align 4
  %39 = getelementptr inbounds nuw i8, ptr %37, i64 16
  store ptr %19, ptr %39, align 8
  %40 = call ptr @hostlist_create(ptr noundef %31) #6
  %41 = getelementptr inbounds nuw i8, ptr %37, i64 24
  store ptr %40, ptr %41, align 8
  %42 = getelementptr inbounds nuw i8, ptr %37, i64 36
  store i32 7002, ptr %42, align 4
  %43 = getelementptr inbounds nuw i8, ptr %37, i64 40
  store ptr %18, ptr %43, align 8
  call void @set_agent_arg_r_uid(ptr noundef nonnull %37, i32 noundef %34) #6
  %44 = call i16 @llvm.umin.i16(i16 %36, i16 11008)
  %45 = getelementptr inbounds nuw i8, ptr %37, i64 32
  store i16 %44, ptr %45, align 8
  %46 = load ptr, ptr @stepmgr_ops, align 8
  %47 = getelementptr inbounds nuw i8, ptr %46, i64 64
  %48 = load ptr, ptr %47, align 8
  call void %48(ptr noundef nonnull %37) #6
  br label %49

49:                                               ; preds = %8, %11, %14, %2, %_srun_set_addr.exit
  ret i32 0
}